target datalayout = "e-m:e-p270:32:32-p271:32:32-p272:64:64-i64:64-i128:128-f80:128-n8:16:32:64-S128"
target triple = "x86_64-pc-linux-gnu"

%struct.H5HL_t = type { i64, i64, i64, i64, i8, ptr, ptr, i64, i64, i64, ptr, i64, i64, ptr }
%struct.H5C_cache_entry_t = type { ptr, i64, i64, ptr, i8, ptr, i8, i8, i8, i8, i32, i8, i8, i8, i8, i8, i32, ptr, i32, i32, i32, i32, i32, i8, i8, ptr, ptr, ptr, ptr, ptr, ptr, i8, i32, i8, i64, ptr, i64, i64, i32, i8, i32, i32, i8, ptr, ptr, ptr }
%struct.H5HL_free_t = type { i64, i64, ptr, ptr }
%struct.H5HL_dblk_t = type { %struct.H5C_cache_entry_t, ptr }

@H5HL_init_g = external global i8, align 1
@H5_libterm_g = external global i8, align 1

; Function Attrs: nounwind uwtable
define internal i32 @H5HL__cache_datablock_serialize(ptr noundef %0, ptr noundef %1, i64 noundef %2, ptr noundef %3) #0 {
  %5 = alloca ptr, align 8
  %6 = alloca ptr, align 8
  %7 = alloca i64, align 8
  %8 = alloca ptr, align 8
  %9 = alloca ptr, align 8
  %10 = alloca ptr, align 8
  store ptr %0, ptr %5, align 8, !tbaa !48
  store ptr %1, ptr %6, align 8, !tbaa !3
  store i64 %2, ptr %7, align 8, !tbaa !13
  store ptr %3, ptr %8, align 8, !tbaa !3
  call void @llvm.lifetime.start.p0(i64 8, ptr %9) #7
  call void @llvm.lifetime.start.p0(i64 8, ptr %10) #7
  %11 = load ptr, ptr %8, align 8, !tbaa !3
  store ptr %11, ptr %10, align 8, !tbaa !62
  %12 = load i8, ptr @H5HL_init_g, align 1, !tbaa !9, !range !11, !noundef !12
  %13 = trunc i8 %12 to i1
  br i1 %13, label %18, label %14

14:                                               ; preds = %4
  %15 = load i8, ptr @H5_libterm_g, align 1, !tbaa !9, !range !11, !noundef !12
  %16 = trunc i8 %15 to i1
  %17 = xor i1 %16, true
  br label %18

18:                                               ; preds = %14, %4
  %19 = phi i1 [ true, %4 ], [ %17, %14 ]
  %20 = xor i1 %19, true
  %21 = xor i1 %20, true
  %22 = zext i1 %21 to i32
  %23 = sext i32 %22 to i64
  %24 = call i64 @llvm.expect.i64(i64 %23, i64 1)
  %25 = icmp ne i64 %24, 0
  br i1 %25, label %26, label %53

26:                                               ; preds = %18
  %27 = load ptr, ptr %10, align 8, !tbaa !62
  %28 = getelementptr inbounds nuw %struct.H5HL_dblk_t, ptr %27, i32 0, i32 1
  %29 = load ptr, ptr %28, align 8, !tbaa !63
  store ptr %29, ptr %9, align 8, !tbaa !31
  %30 = load ptr, ptr %9, align 8, !tbaa !31
  %31 = getelementptr inbounds nuw %struct.H5HL_t, ptr %30, i32 0, i32 5
  %32 = load ptr, ptr %31, align 8, !tbaa !50
  %33 = icmp ne ptr %32, null
  br i1 %33, label %34, label %40

34:                                               ; preds = %26
  %35 = load ptr, ptr %9, align 8, !tbaa !31
  %36 = getelementptr inbounds nuw %struct.H5HL_t, ptr %35, i32 0, i32 5
  %37 = load ptr, ptr %36, align 8, !tbaa !50
  %38 = getelementptr inbounds nuw %struct.H5HL_free_t, ptr %37, i32 0, i32 0
  %39 = load i64, ptr %38, align 8, !tbaa !51
  br label %41

40:                                               ; preds = %26
  br label %41

41:                                               ; preds = %40, %34
  %42 = phi i64 [ %39, %34 ], [ 1, %40 ]
  %43 = load ptr, ptr %9, align 8, !tbaa !31
  %44 = getelementptr inbounds nuw %struct.H5HL_t, ptr %43, i32 0, i32 9
  store i64 %42, ptr %44, align 8, !tbaa !53
  %45 = load ptr, ptr %9, align 8, !tbaa !31
  call void @H5HL__fl_serialize(ptr noundef %45)
  %46 = load ptr, ptr %6, align 8, !tbaa !3
  %47 = load ptr, ptr %9, align 8, !tbaa !31
  %48 = getelementptr inbounds nuw %struct.H5HL_t, ptr %47, i32 0, i32 13
  %49 = load ptr, ptr %48, align 8, !tbaa !39
  %50 = load ptr, ptr %9, align 8, !tbaa !31
  %51 = getelementptr inbounds nuw %struct.H5HL_t, ptr %50, i32 0, i32 12
  %52 = load i64, ptr %51, align 8, !tbaa !26
  call void @llvm.memcpy.p0.p0.i64(ptr align 1 %46, ptr align 1 %49, i64 %52, i1 false)
  br label %53

53:                                               ; preds = %41, %18
  call void @llvm.lifetime.end.p0(i64 8, ptr %10) #7
  call void @llvm.lifetime.end.p0(i64 8, ptr %9) #7
  ret i32 0
}