; Function Attrs: nofree norecurse nosync nounwind memory(readwrite, inaccessiblemem: none) uwtable
define internal noundef i32 @H5HL__cache_datablock_serialize(ptr readnone captures(none) %0, ptr noundef writeonly captures(none) %1, i64 %2, ptr noundef readonly captures(none) %3) #3 {
  %5 = load i8, ptr @H5HL_init_g, align 1, !tbaa !3, !range !7, !noundef !8
  %6 = trunc nuw i8 %5 to i1
  %7 = load i8, ptr @H5_libterm_g, align 1, !range !7
  %8 = trunc nuw i8 %7 to i1
  %9 = xor i1 %8, true
  %10 = select i1 %6, i1 true, i1 %9
  br i1 %10, label %11, label %25, !prof !9

11:                                               ; preds = %4
  %12 = getelementptr inbounds nuw i8, ptr %3, i64 248
  %13 = load ptr, ptr %12, align 8, !tbaa !50
  %14 = getelementptr inbounds nuw i8, ptr %13, i64 40
  %15 = load ptr, ptr %14, align 8, !tbaa !39
  %.not = icmp eq ptr %15, null
  br i1 %.not, label %18, label %16

16:                                               ; preds = %11
  %17 = load i64, ptr %15, align 8, !tbaa !40
  br label %18

18:                                               ; preds = %11, %16
  %19 = phi i64 [ %17, %16 ], [ 1, %11 ]
  %20 = getelementptr inbounds nuw i8, ptr %13, i64 72
  store i64 %19, ptr %20, align 8, !tbaa !42
  tail call fastcc void @H5HL__fl_serialize(ptr noundef nonnull %13)
  %21 = getelementptr inbounds nuw i8, ptr %13, i64 104
  %22 = load ptr, ptr %21, align 8, !tbaa !27
  %23 = getelementptr inbounds nuw i8, ptr %13, i64 96
  %24 = load i64, ptr %23, align 8, !tbaa !19
  tail call void @llvm.memcpy.p0.p0.i64(ptr align 1 %1, ptr align 1 %22, i64 %24, i1 false)
  br label %25

25:                                               ; preds = %18, %4
  ret i32 0
}